target datalayout = "e-m:e-p270:32:32-p271:32:32-p272:64:64-i64:64-i128:128-f80:128-n8:16:32:64-S128"
target triple = "x86_64-pc-linux-gnu"

@.str = private unnamed_addr constant [128 x i8] c"generated/home/dtcxzyw/WorkSpace/Projects/compilers/llvm-opt-benchmark/bench/open3d/Open3D/cpp/open3d/core/MemoryManagerCPU.cpp\00", align 1
@__PRETTY_FUNCTION__._ZN6open3d4core16MemoryManagerCPU6MallocEmRKNS0_6DeviceE = private unnamed_addr constant [77 x i8] c"virtual void *open3d::core::MemoryManagerCPU::Malloc(size_t, const Device &)\00", align 1
@.str.1 = private unnamed_addr constant [18 x i8] c"CPU malloc failed\00", align 1

; Function Attrs: mustprogress ssp uwtable
define noundef ptr @_ZN6open3d4core16MemoryManagerCPU6MallocEmRKNS0_6DeviceE(ptr noundef nonnull align 8 dereferenceable(8) %0, i64 noundef %1, ptr noundef nonnull align 4 dereferenceable(8) %2) unnamed_addr #2 align 2 {
  %4 = alloca ptr, align 8
  %5 = alloca i64, align 8
  %6 = alloca ptr, align 8
  %7 = alloca ptr, align 8
  store ptr %0, ptr %4, align 8, !tbaa !9
  store i64 %1, ptr %5, align 8, !tbaa !11
  store ptr %2, ptr %6, align 8, !tbaa !13
  call void @llvm.lifetime.start.p0(i64 8, ptr %7) #17
  %8 = load i64, ptr %5, align 8, !tbaa !11
  %9 = call noalias ptr @malloc(i64 noundef %8) #19
  store ptr %9, ptr %7, align 8, !tbaa !15
  %10 = load i64, ptr %5, align 8, !tbaa !11
  %11 = icmp ne i64 %10, 0
  br i1 %11, label %12, label %16

12:                                               ; preds = %3
  %13 = load ptr, ptr %7, align 8, !tbaa !15
  %14 = icmp ne ptr %13, null
  br i1 %14, label %16, label %15

15:                                               ; preds = %12
  call void @_ZN6open3d7utility6Logger9LogError_IJEEEvPKciS4_S4_DpOT_(ptr noundef @.str, i32 noundef 20, ptr noundef @__PRETTY_FUNCTION__._ZN6open3d4core16MemoryManagerCPU6MallocEmRKNS0_6DeviceE, ptr noundef @.str.1) #20
  unreachable

16:                                               ; preds = %12, %3
  %17 = load ptr, ptr %7, align 8, !tbaa !15
  call void @llvm.lifetime.end.p0(i64 8, ptr %7) #17
  ret ptr %17
}