; Function Attrs: mustprogress ssp uwtable
define noalias noundef ptr @_ZN6open3d4core16MemoryManagerCPU6MallocEmRKNS0_6DeviceE(ptr nonnull readnone align 8 captures(none) %0, i64 noundef %1, ptr nonnull readnone align 4 captures(none) %2) unnamed_addr #2 align 2 {
  %4 = tail call noalias ptr @malloc(i64 noundef %1) #17
  %5 = icmp eq i64 %1, 0
  %6 = icmp ne ptr %4, null
  %or.cond = or i1 %5, %6
  br i1 %or.cond, label %8, label %7

7:                                                ; preds = %3
  tail call void @_ZN6open3d7utility6Logger9LogError_IJEEEvPKciS4_S4_DpOT_(ptr noundef nonnull @.str, i32 noundef 20, ptr noundef nonnull @__PRETTY_FUNCTION__._ZN6open3d4core16MemoryManagerCPU6MallocEmRKNS0_6DeviceE, ptr noundef nonnull @.str.1) #18
  unreachable

8:                                                ; preds = %3
  ret ptr %4
}